target datalayout = "e-m:e-p270:32:32-p271:32:32-p272:64:64-i64:64-i128:128-f80:128-n8:16:32:64-S128"
target triple = "x86_64-pc-linux-gnu"

%"class.std::vector.3" = type { %"struct.std::_Vector_base.4" }
%"struct.std::_Vector_base.4" = type { %"struct.std::_Vector_base<int, std::allocator<int>>::_Vector_impl" }
%"struct.std::_Vector_base<int, std::allocator<int>>::_Vector_impl" = type { %"struct.std::_Vector_base<int, std::allocator<int>>::_Vector_impl_data" }
%"struct.std::_Vector_base<int, std::allocator<int>>::_Vector_impl_data" = type { ptr, ptr, ptr }
%"class.colvarmodule::rvector" = type { double, double, double }
%"class.std::vector.18" = type { %"struct.std::_Vector_base.19" }
%"struct.std::_Vector_base.19" = type { %"struct.std::_Vector_base<colvarmodule::rvector, std::allocator<colvarmodule::rvector>>::_Vector_impl" }
%"struct.std::_Vector_base<colvarmodule::rvector, std::allocator<colvarmodule::rvector>>::_Vector_impl" = type { %"struct.std::_Vector_base<colvarmodule::rvector, std::allocator<colvarmodule::rvector>>::_Vector_impl_data" }
%"struct.std::_Vector_base<colvarmodule::rvector, std::allocator<colvarmodule::rvector>>::_Vector_impl_data" = type { ptr, ptr, ptr }
%"class.colvarmodule::atom" = type { i32, i32, double, double, %"class.colvarmodule::rvector", %"class.colvarmodule::rvector", %"class.colvarmodule::rvector", %"class.colvarmodule::rvector" }
%class.colvarproxy_atoms = type <{ ptr, %"class.std::vector.3", %"class.std::vector.8", %"class.std::vector.13", %"class.std::vector.13", %"class.std::vector.18", %"class.std::vector.18", %"class.std::vector.18", double, double, i32, i8, i8, i8, i8 }>
%"class.std::vector.8" = type { %"struct.std::_Vector_base.9" }
%"struct.std::_Vector_base.9" = type { %"struct.std::_Vector_base<unsigned long, std::allocator<unsigned long>>::_Vector_impl" }
%"struct.std::_Vector_base<unsigned long, std::allocator<unsigned long>>::_Vector_impl" = type { %"struct.std::_Vector_base<unsigned long, std::allocator<unsigned long>>::_Vector_impl_data" }
%"struct.std::_Vector_base<unsigned long, std::allocator<unsigned long>>::_Vector_impl_data" = type { ptr, ptr, ptr }
%"class.std::vector.13" = type { %"struct.std::_Vector_base.14" }
%"struct.std::_Vector_base.14" = type { %"struct.std::_Vector_base<double, std::allocator<double>>::_Vector_impl" }
%"struct.std::_Vector_base<double, std::allocator<double>>::_Vector_impl" = type { %"struct.std::_Vector_base<double, std::allocator<double>>::_Vector_impl_data" }
%"struct.std::_Vector_base<double, std::allocator<double>>::_Vector_impl_data" = type { ptr, ptr, ptr }

@_ZN12colvarmodule5proxyE = external global ptr, align 8

; Function Attrs: mustprogress nounwind uwtable
define linkonce_odr void @_ZN12colvarmodule7rvector3setEd(ptr noundef nonnull align 8 dereferenceable(24) %0, double noundef %1) #1 comdat align 2 {
  %3 = alloca ptr, align 8
  %4 = alloca double, align 8
  store ptr %0, ptr %3, align 8
  store double %1, ptr %4, align 8
  %5 = load ptr, ptr %3, align 8
  %6 = load double, ptr %4, align 8
  %7 = getelementptr inbounds %"class.colvarmodule::rvector", ptr %5, i32 0, i32 2
  store double %6, ptr %7, align 8
  %8 = getelementptr inbounds %"class.colvarmodule::rvector", ptr %5, i32 0, i32 1
  store double %6, ptr %8, align 8
  %9 = getelementptr inbounds %"class.colvarmodule::rvector", ptr %5, i32 0, i32 0
  store double %6, ptr %9, align 8
  ret void
}

; Function Attrs: mustprogress nounwind uwtable
define linkonce_odr noundef nonnull align 8 dereferenceable(8) ptr @_ZNKSt6vectorIdSaIdEEixEm(ptr noundef nonnull align 8 dereferenceable(24) %0, i64 noundef %1) #1 comdat align 2 {
  %3 = alloca ptr, align 8
  %4 = alloca i64, align 8
  store ptr %0, ptr %3, align 8
  store i64 %1, ptr %4, align 8
  %5 = load ptr, ptr %3, align 8
  %6 = getelementptr inbounds %"struct.std::_Vector_base.14", ptr %5, i32 0, i32 0
  %7 = getelementptr inbounds %"struct.std::_Vector_base<double, std::allocator<double>>::_Vector_impl_data", ptr %6, i32 0, i32 0
  %8 = load ptr, ptr %7, align 8
  %9 = load i64, ptr %4, align 8
  %10 = getelementptr inbounds double, ptr %8, i64 %9
  ret ptr %10
}

; Function Attrs: mustprogress nounwind uwtable
define linkonce_odr void @_ZN12colvarmodule7rvectorC2Ed(ptr noundef nonnull align 8 dereferenceable(24) %0, double noundef %1) unnamed_addr #1 comdat align 2 {
  %3 = alloca ptr, align 8
  %4 = alloca double, align 8
  store ptr %0, ptr %3, align 8
  store double %1, ptr %4, align 8
  %5 = load ptr, ptr %3, align 8
  %6 = load double, ptr %4, align 8
  call void @_ZN12colvarmodule7rvector3setEd(ptr noundef nonnull align 8 dereferenceable(24) %5, double noundef %6)
  ret void
}

; Function Attrs: mustprogress nounwind uwtable
define linkonce_odr noundef double @_ZNK17colvarproxy_atoms15get_atom_chargeEi(ptr noundef nonnull align 8 dereferenceable(199) %0, i32 noundef %1) #1 comdat align 2 {
  %3 = alloca ptr, align 8
  %4 = alloca i32, align 4
  store ptr %0, ptr %3, align 8
  store i32 %1, ptr %4, align 4
  %5 = load ptr, ptr %3, align 8
  %6 = getelementptr inbounds %class.colvarproxy_atoms, ptr %5, i32 0, i32 4
  %7 = load i32, ptr %4, align 4
  %8 = sext i32 %7 to i64
  %9 = call noundef nonnull align 8 dereferenceable(8) ptr @_ZNKSt6vectorIdSaIdEEixEm(ptr noundef nonnull align 8 dereferenceable(24) %6, i64 noundef %8) #15
  %10 = load double, ptr %9, align 8
  ret double %10
}

; Function Attrs: mustprogress nounwind uwtable
define linkonce_odr noundef double @_ZNK17colvarproxy_atoms13get_atom_massEi(ptr noundef nonnull align 8 dereferenceable(199) %0, i32 noundef %1) #1 comdat align 2 {
  %3 = alloca ptr, align 8
  %4 = alloca i32, align 4
  store ptr %0, ptr %3, align 8
  store i32 %1, ptr %4, align 4
  %5 = load ptr, ptr %3, align 8
  %6 = getelementptr inbounds %class.colvarproxy_atoms, ptr %5, i32 0, i32 3
  %7 = load i32, ptr %4, align 4
  %8 = sext i32 %7 to i64
  %9 = call noundef nonnull align 8 dereferenceable(8) ptr @_ZNKSt6vectorIdSaIdEEixEm(ptr noundef nonnull align 8 dereferenceable(24) %6, i64 noundef %8) #15
  %10 = load double, ptr %9, align 8
  ret double %10
}

; Function Attrs: mustprogress nounwind uwtable
define linkonce_odr noundef nonnull align 4 dereferenceable(4) ptr @_ZNKSt6vectorIiSaIiEEixEm(ptr noundef nonnull align 8 dereferenceable(24) %0, i64 noundef %1) #1 comdat align 2 {
  %3 = alloca ptr, align 8
  %4 = alloca i64, align 8
  store ptr %0, ptr %3, align 8
  store i64 %1, ptr %4, align 8
  %5 = load ptr, ptr %3, align 8
  %6 = getelementptr inbounds %"struct.std::_Vector_base.4", ptr %5, i32 0, i32 0
  %7 = getelementptr inbounds %"struct.std::_Vector_base<int, std::allocator<int>>::_Vector_impl_data", ptr %6, i32 0, i32 0
  %8 = load ptr, ptr %7, align 8
  %9 = load i64, ptr %4, align 8
  %10 = getelementptr inbounds i32, ptr %8, i64 %9
  ret ptr %10
}

; Function Attrs: mustprogress uwtable
define linkonce_odr void @_ZN12colvarmodule4atom10reset_dataEv(ptr noundef nonnull align 8 dereferenceable(120) %0) #2 comdat align 2 {
  %2 = alloca ptr, align 8
  %3 = alloca %"class.colvarmodule::rvector", align 8
  %4 = alloca %"class.colvarmodule::rvector", align 8
  store ptr %0, ptr %2, align 8
  %5 = load ptr, ptr %2, align 8
  call void @_ZN12colvarmodule7rvectorC2Ed(ptr noundef nonnull align 8 dereferenceable(24) %3, double noundef 0.000000e+00)
  %6 = getelementptr inbounds %"class.colvarmodule::atom", ptr %5, i32 0, i32 4
  call void @llvm.memcpy.p0.p0.i64(ptr align 8 %6, ptr align 8 %3, i64 24, i1 false)
  call void @_ZN12colvarmodule7rvectorC2Ed(ptr noundef nonnull align 8 dereferenceable(24) %4, double noundef 0.000000e+00)
  %7 = getelementptr inbounds %"class.colvarmodule::atom", ptr %5, i32 0, i32 6
  call void @llvm.memcpy.p0.p0.i64(ptr align 8 %7, ptr align 8 %4, i64 24, i1 false)
  %8 = getelementptr inbounds %"class.colvarmodule::atom", ptr %5, i32 0, i32 7
  call void @llvm.memcpy.p0.p0.i64(ptr align 8 %8, ptr align 8 %7, i64 24, i1 false)
  %9 = getelementptr inbounds %"class.colvarmodule::atom", ptr %5, i32 0, i32 5
  call void @llvm.memcpy.p0.p0.i64(ptr align 8 %9, ptr align 8 %8, i64 24, i1 false)
  ret void
}

; Function Attrs: mustprogress uwtable
define linkonce_odr void @_ZN12colvarmodule4atom13update_chargeEv(ptr noundef nonnull align 8 dereferenceable(120) %0) #2 comdat align 2 {
  %2 = alloca ptr, align 8
  %3 = alloca ptr, align 8
  store ptr %0, ptr %2, align 8
  %4 = load ptr, ptr %2, align 8
  %5 = load ptr, ptr @_ZN12colvarmodule5proxyE, align 8
  store ptr %5, ptr %3, align 8
  %6 = load ptr, ptr %3, align 8
  %7 = getelementptr inbounds i8, ptr %6, i64 256
  %8 = getelementptr inbounds %"class.colvarmodule::atom", ptr %4, i32 0, i32 0
  %9 = load i32, ptr %8, align 8
  %10 = call noundef double @_ZNK17colvarproxy_atoms15get_atom_chargeEi(ptr noundef nonnull align 8 dereferenceable(199) %7, i32 noundef %9)
  %11 = getelementptr inbounds %"class.colvarmodule::atom", ptr %4, i32 0, i32 3
  store double %10, ptr %11, align 8
  ret void
}

; Function Attrs: mustprogress uwtable
define linkonce_odr void @_ZN12colvarmodule4atom11update_massEv(ptr noundef nonnull align 8 dereferenceable(120) %0) #2 comdat align 2 {
  %2 = alloca ptr, align 8
  %3 = alloca ptr, align 8
  store ptr %0, ptr %2, align 8
  %4 = load ptr, ptr %2, align 8
  %5 = load ptr, ptr @_ZN12colvarmodule5proxyE, align 8
  store ptr %5, ptr %3, align 8
  %6 = load ptr, ptr %3, align 8
  %7 = getelementptr inbounds i8, ptr %6, i64 256
  %8 = getelementptr inbounds %"class.colvarmodule::atom", ptr %4, i32 0, i32 0
  %9 = load i32, ptr %8, align 8
  %10 = call noundef double @_ZNK17colvarproxy_atoms13get_atom_massEi(ptr noundef nonnull align 8 dereferenceable(199) %7, i32 noundef %9)
  %11 = getelementptr inbounds %"class.colvarmodule::atom", ptr %4, i32 0, i32 2
  store double %10, ptr %11, align 8
  ret void
}

; Function Attrs: mustprogress nounwind uwtable
define linkonce_odr noundef i32 @_ZNK17colvarproxy_atoms11get_atom_idEi(ptr noundef nonnull align 8 dereferenceable(199) %0, i32 noundef %1) #1 comdat align 2 {
  %3 = alloca ptr, align 8
  %4 = alloca i32, align 4
  store ptr %0, ptr %3, align 8
  store i32 %1, ptr %4, align 4
  %5 = load ptr, ptr %3, align 8
  %6 = getelementptr inbounds %class.colvarproxy_atoms, ptr %5, i32 0, i32 1
  %7 = load i32, ptr %4, align 4
  %8 = sext i32 %7 to i64
  %9 = call noundef nonnull align 4 dereferenceable(4) ptr @_ZNKSt6vectorIiSaIiEEixEm(ptr noundef nonnull align 8 dereferenceable(24) %6, i64 noundef %8) #15
  %10 = load i32, ptr %9, align 4
  ret i32 %10
}

; Function Attrs: mustprogress uwtable
define noundef nonnull align 8 dereferenceable(120) ptr @_ZN12colvarmodule4atomaSERKS0_(ptr noundef nonnull align 8 dereferenceable(120) %0, ptr noundef nonnull align 8 dereferenceable(120) %1) #2 align 2 {
  %3 = alloca ptr, align 8
  %4 = alloca ptr, align 8
  store ptr %0, ptr %3, align 8
  store ptr %1, ptr %4, align 8
  %5 = load ptr, ptr %3, align 8
  %6 = load ptr, ptr %4, align 8
  %7 = getelementptr inbounds %"class.colvarmodule::atom", ptr %6, i32 0, i32 0
  %8 = load i32, ptr %7, align 8
  %9 = getelementptr inbounds %"class.colvarmodule::atom", ptr %5, i32 0, i32 0
  store i32 %8, ptr %9, align 8
  %10 = call noundef ptr @_ZN12colvarmodule4mainEv()
  %11 = load ptr, ptr @_ZN12colvarmodule5proxyE, align 8
  %12 = getelementptr inbounds i8, ptr %11, i64 256
  %13 = getelementptr inbounds %"class.colvarmodule::atom", ptr %5, i32 0, i32 0
  %14 = load i32, ptr %13, align 8
  %15 = call noundef i32 @_ZNK17colvarproxy_atoms11get_atom_idEi(ptr noundef nonnull align 8 dereferenceable(199) %12, i32 noundef %14)
  %16 = getelementptr inbounds %"class.colvarmodule::atom", ptr %5, i32 0, i32 1
  store i32 %15, ptr %16, align 4
  call void @_ZN12colvarmodule4atom11update_massEv(ptr noundef nonnull align 8 dereferenceable(120) %5)
  call void @_ZN12colvarmodule4atom13update_chargeEv(ptr noundef nonnull align 8 dereferenceable(120) %5)
  call void @_ZN12colvarmodule4atom10reset_dataEv(ptr noundef nonnull align 8 dereferenceable(120) %5)
  ret ptr %5
}