; Function Attrs: mustprogress uwtable
define noundef nonnull align 8 dereferenceable(120) ptr @_ZN12colvarmodule4atomaSERKS0_(ptr noundef nonnull returned align 8 dereferenceable(120) %0, ptr nocapture noundef nonnull readonly align 8 dereferenceable(120) %1) local_unnamed_addr #2 align 2 {
  %3 = load i32, ptr %1, align 8
  store i32 %3, ptr %0, align 8
  %4 = tail call noundef ptr @_ZN12colvarmodule4mainEv()
  %5 = load ptr, ptr @_ZN12colvarmodule5proxyE, align 8
  %6 = load i32, ptr %0, align 8
  %7 = getelementptr inbounds i8, ptr %5, i64 264
  %8 = sext i32 %6 to i64
  %9 = load ptr, ptr %7, align 8
  %10 = getelementptr inbounds i32, ptr %9, i64 %8
  %11 = load i32, ptr %10, align 4
  %12 = getelementptr inbounds i8, ptr %0, i64 4
  store i32 %11, ptr %12, align 4
  %13 = load ptr, ptr @_ZN12colvarmodule5proxyE, align 8
  %14 = getelementptr inbounds i8, ptr %13, i64 312
  %15 = load ptr, ptr %14, align 8
  %16 = getelementptr inbounds double, ptr %15, i64 %8
  %17 = load double, ptr %16, align 8
  %18 = getelementptr inbounds i8, ptr %0, i64 8
  store double %17, ptr %18, align 8
  %19 = getelementptr inbounds i8, ptr %13, i64 336
  %20 = load ptr, ptr %19, align 8
  %21 = getelementptr inbounds double, ptr %20, i64 %8
  %22 = load double, ptr %21, align 8
  %23 = getelementptr inbounds i8, ptr %0, i64 16
  store double %22, ptr %23, align 8
  %24 = getelementptr inbounds i8, ptr %0, i64 24
  tail call void @llvm.memset.p0.i64(ptr noundef nonnull align 8 dereferenceable(96) %24, i8 0, i64 96, i1 false)
  ret ptr %0
}